(dp1
Veye,eye
p2
(lp3
cnumpy.core.multiarray
scalar
p4
(cnumpy
dtype
p5
(S'f4'
I0
I1
tRp6
(I3
S'<'
NNNI-1
I-1
I0
tbS'.\x154?'
tRp7
ag4
(g6
S'8\xf9<@'
tRp8
asVcutting,cutting
p9
(lp10
g4
(g6
S'\x00\x00@?'
tRp11
ag4
(g6
S'\xce\x02\\A'
tRp12
asVgraduate,graduate
p13
(lp14
g4
(g6
S'\n\xd7\xa3<'
tRp15
ag4
(g6
S'+\xa7\x9fA'
tRp16
asVcheat,cheat
p17
(lp18
g4
(g6
S'}\xc5\xd7>'
tRp19
ag4
(g6
S'\x9c\xaa\x05@'
tRp20
asVgraveyard,graveyard
p21
(lp22
g4
(g6
S'x@2?'
tRp23
ag4
(g6
S'hWY@'
tRp24
asVbalance,balance
p25
(lp26
g4
(g6
S'[\x0ci>'
tRp27
ag4
(g6
S'\xb2\x82\x1bA'
tRp28
asVradio,radio
p29
(lp30
g4
(g6
S'\x05t\xda='
tRp31
ag4
(g6
S'B\n1B'
tRp32
asVfine,fine
p33
(lp34
g4
(g6
S'O\x94\xec>'
tRp35
ag4
(g6
S'\xd8\xe5\x9a@'
tRp36
asVrock,rock
p37
(lp38
g4
(g6
S'%I\x12?'
tRp39
ag4
(g6
S'\xf6\xbf\x1fA'
tRp40
asVend,end
p41
(lp42
g4
(g6
S'\x9a\x99\x19>'
tRp43
ag4
(g6
S'\xa1$8A'
tRp44
asVcase,case
p45
(lp46
g4
(g6
S'\xb8\x1e\x85>'
tRp47
ag4
(g6
S'hy4A'
tRp48
asVspelling,spelling
p49
(lp50
g4
(g6
S'\xf5\xa5\x02?'
tRp51
ag4
(g6
S'F",A'
tRp52
asVguilt,guilt
p53
(lp54
g4
(g6
S'X\x1e\x10?'
tRp55
ag4
(g6
S'\x88\xa5\x12\xbf'
tRp56
asVlaw,law
p57
(lp58
g4
(g6
S'\x8f\xc2\xf5='
tRp59
ag4
(g6
S'm\xb7\xd9A'
tRp60
asVcocktail,cocktail
p61
(lp62
g4
(g6
S'\x8b\xdc\xc8>'
tRp63
ag4
(g6
S'\x07\xf7\x8f@'
tRp64
asVfiring,firing
p65
(lp66
g4
(g6
S'6\xc5(?'
tRp67
ag4
(g6
S'\x97)\x9f@'
tRp68
asVhealth,health
p69
(lp70
g4
(g6
S'\x8f\xc2\xf5='
tRp71
ag4
(g6
S'\x84G\xd9A'
tRp72
asVfront,front
p73
(lp74
g4
(g6
S'B\x1c\xf0>'
tRp75
ag4
(g6
S'\x9f\x98\x9b@'
tRp76
asVswimming,swimming
p77
(lp78
g4
(g6
S'\xeas\xda<'
tRp79
ag4
(g6
S'.\x84\xecA'
tRp80
asVcall,call
p81
(lp82
g4
(g6
S'\xd6=\x8d='
tRp83
ag4
(g6
S'\x83$\xe4@'
tRp84
asVsnake,snake
p85
(lp86
g4
(g6
S'\x9a\x99Y?'
tRp87
ag4
(g6
S'\xd9x-@'
tRp88
asVcrash,crash
p89
(lp90
g4
(g6
S'%I\x12?'
tRp91
ag4
(g6
S'\x1bn\x12@'
tRp92
asVresearch,research
p93
(lp94
g4
(g6
S'\x0eI\x12='
tRp95
ag4
(g6
S'\xa7\x13\xa4A'
tRp96
asVcouch,couch
p97
(lp98
g4
(g6
S'"\x9d7?'
tRp99
ag4
(g6
S'FS\x04\xbf'
tRp100
asVcloud,cloud
p101
(lp102
g4
(g6
S'\xf0\xeen?'
tRp103
ag4
(g6
S'\xee\xa9a?'
tRp104
asVdiamond,diamond
p105
(lp106
g4
(g6
S'6\xc5(?'
tRp107
ag4
(g6
S'2\x94\xa7?'
tRp108
asVchain,chain
p109
(lp110
g4
(g6
S'\xb4\xdc\xd3>'
tRp111
ag4
(g6
S'\x02\xe5<A'
tRp112
asVpolo,polo
p113
(lp114
g4
(g6
S'\xd8@\xa7>'
tRp115
ag4
(g6
S'\xfdugA'
tRp116
asVrat,rat
p117
(lp118
g4
(g6
S'A\x1dT?'
tRp119
ag4
(g6
S'\xfc\x96 ?'
tRp120
asVsilver,silver
p121
(lp122
g4
(g6
S'\xdd\xdd]?'
tRp123
ag4
(g6
S'^\xed\xb8@'
tRp124
asVbank,bank
p125
(lp126
g4
(g6
S' tZ='
tRp127
ag4
(g6
S'\xec\x85\x8cA'
tRp128
asVgame,game
p129
(lp130
g4
(g6
S'B\x1cp>'
tRp131
ag4
(g6
S'\rT\xa0@'
tRp132
asVblame,blame
p133
(lp134
g4
(g6
S'\xd5x\xe9>'
tRp135
ag4
(g6
S'\x9f\xca]?'
tRp136
asVchina,china
p137
(lp138
g4
(g6
S'\x06$k>'
tRp139
ag4
(g6
S'\xfcr\x00A'
tRp140
asVshrinking,shrinking
p141
(lp142
g4
(g6
S'\xd9DI?'
tRp143
ag4
(g6
S'R_\x0f@'
tRp144
asVfashion,fashion
p145
(lp146
g4
(g6
S't\xfca>'
tRp147
ag4
(g6
S'\x06\xff\xd2?'
tRp148
asVvideo,video
p149
(lp150
g4
(g6
S'\n\xd7\xa3='
tRp151
ag4
(g6
S'\xfc\xae\x12B'
tRp152
asVlip,lip
p153
(lp154
g4
(g6
S'K\x05-?'
tRp155
ag4
(g6
S'\xf8\x8b8@'
tRp156
asVinterest,interest
p157
(lp158
g4
(g6
S'\xed\x8a\xaf='
tRp159
ag4
(g6
S'\x1c7\xb0A'
tRp160
asVparking,parking
p161
(lp162
g4
(g6
S'\x8f\xc2u='
tRp163
ag4
(g6
S'F\xe5\xa1A'
tRp164
asVswan,swan
p165
(lp166
g4
(g6
S'\xaa\xa0U?'
tRp167
ag4
(g6
S'\x96k\xac@'
tRp168
asVmelting,melting
p169
(lp170
g4
(g6
S'End?'
tRp171
ag4
(g6
S'l\xa1\xa6@'
tRp172
asVpecking,pecking
p173
(lp174
g4
(g6
S'[})?'
tRp175
ag4
(g6
S'\xe0\x90\xcc@'
tRp176
asVagony,agony
p177
(lp178
g4
(g6
S'\x9a(Y?'
tRp179
ag4
(g6
S"\xe8\xba'@"
tRp180
asVivory,ivory
p181
(lp182
g4
(g6
S'\x83:h?'
tRp183
ag4
(g6
S'I%\xe5?'
tRp184
asVspinning,spinning
p185
(lp186
g4
(g6
S'\xd2y\x0b?'
tRp187
ag4
(g6
S'\xefFt@'
tRp188
asVface,face
p189
(lp190
g4
(g6
S'\xe6\x01\xc9>'
tRp191
ag4
(g6
S'\xe0b=A'
tRp192
asVbrick,brick
p193
(lp194
g4
(g6
S'),w>'
tRp195
ag4
(g6
S'@\x9eeA'
tRp196
asVsmoking,smoking
p197
(lp198
g4
(g6
S'L7\t?'
tRp199
ag4
(g6
S'\xb2\xd1%@'
tRp200
asVground,ground
p201
(lp202
g4
(g6
S'\x80\x88\x88='
tRp203
ag4
(g6
S'\x88E\xa7A'
tRp204
asVmemory,memory
p205
(lp206
g4
(g6
S'\x10\x11\x11?'
tRp207
ag4
(g6
S'0\xef\x1b@'
tRp208
asVnest,nest
p209
(lp210
g4
(g6
S'\x82-X?'
tRp211
ag4
(g6
S'\xe7U\xd3?'
tRp212
asVpublic,public
p213
(lp214
g4
(g6
S'\x8f\xc2\xf5='
tRp215
ag4
(g6
S'\xc6\x12\xc7A'
tRp216
asVflea,flea
p217
(lp218
g4
(g6
S'8Q2?'
tRp219
ag4
(g6
S':\xe4<A'
tRp220
asVpanda,panda
p221
(lp222
g4
(g6
S'8r#?'
tRp223
ag4
(g6
S'\x909&\xbf'
tRp224
asVcredit,credit
p225
(lp226
g4
(g6
S'\x80\x88\x88='
tRp227
ag4
(g6
S'\xd2\xa9\xbaA'
tRp228
asVengine,engine
p229
(lp230
g4
(g6
S'\xe0\xfca<'
tRp231
ag4
(g6
S'\xfes^A'
tRp232
asVspeed,speed
p233
(lp234
g4
(g6
S'\xd6=\r='
tRp235
ag4
(g6
S'\x18l\xa4A'
tRp236
asVsitting,sitting
p237
(lp238
g4
(g6
S'\x17\xd9N?'
tRp239
ag4
(g6
S'a\x82g\xbf'
tRp240
asVzebra,zebra
p241
(lp242
g4
(g6
S'\x00\x00@?'
tRp243
ag4
(g6
S'\xe1\xaa\xb3@'
tRp244
asVnight,night
p245
(lp246
g4
(g6
S'\x81d\x1d?'
tRp247
ag4
(g6
S'\xd2B\xb0@'
tRp248
asVclimate,climate
p249
(lp250
g4
(g6
S'\xe0\xfc\xe1;'
tRp251
ag4
(g6
S'\x8f\xdb\xbbA'
tRp252
asVacid,acid
p253
(lp254
g4
(g6
S'\x18lA?'
tRp255
ag4
(g6
S'X\xd8\xcc@'
tRp256
asVrush,rush
p257
(lp258
g4
(g6
S'\xad\xaa\xaa>'
tRp259
ag4
(g6
S'\xbeSVA'
tRp260
asVthink,think
p261
(lp262
g4
(g6
S'y\xa1\x17?'
tRp263
ag4
(g6
S'\xd0,=A'
tRp264
asVmonkey,monkey
p265
(lp266
g4
(g6
S'\x94\xecZ?'
tRp267
ag4
(g6
S'4\xba\x8d@'
tRp268
asVapplication,application
p269
(lp270
g4
(g6
S'\n\xd7#='
tRp271
ag4
(g6
S'\xd9\xbc\xe0@'
tRp272
asVnumber,number
p273
(lp274
g4
(g6
S'qS\x0c?'
tRp275
ag4
(g6
S'\xd0;J\xbf'
tRp276
asVhead,head
p277
(lp278
g4
(g6
S'\xcd\xccL>'
tRp279
ag4
(g6
S'TW!A'
tRp280
asVhuman,human
p281
(lp282
g4
(g6
S'W}\xa9='
tRp283
ag4
(g6
S'`\x02\x98A'
tRp284
asVsearch,search
p285
(lp286
g4
(g6
S'1\x08\xac>'
tRp287
ag4
(g6
S'\xb6n\x94A'
tRp288
asVsnail,snail
p289
(lp290
g4
(g6
S'\x0c\xe9<?'
tRp291
ag4
(g6
S'\xcfa\x80@'
tRp292
asVgravy,gravy
p293
(lp294
g4
(g6
S'?\x1cp?'
tRp295
ag4
(g6
S'\xd0\x94<\xbe'
tRp296
asVgold,gold
p297
(lp298
g4
(g6
S'\x0fHV?'
tRp299
ag4
(g6
S'n\xbc\xa2A'
tRp300
asVcar,car
p301
(lp302
g4
(g6
S'\n\xd7#>'
tRp303
ag4
(g6
S'\xd2\xa4\x8fA'
tRp304
asVlotus,lotus
p305
(lp306
g4
(g6
S'\xfb\xe1\x00?'
tRp307
ag4
(g6
S'\xf6c\xcc@'
tRp308
asVgrandfather,grandfather
p309
(lp310
g4
(g6
S'\x17_\xf1>'
tRp311
ag4
(g6
S'f\xc6\xc7@'
tRp312
asVkangaroo,kangaroo
p313
(lp314
g4
(g6
S'\xd3\x06:?'
tRp315
ag4
(g6
S'b\x80\xda@'
tRp316
asVmailing,mailing
p317
(lp318
g4
(g6
S'\x80\x88\x88='
tRp319
ag4
(g6
S"4'hA"
tRp320
asVrocket,rocket
p321
(lp322
g4
(g6
S'o\xdb6?'
tRp323
ag4
(g6
S'p\xe9\x88@'
tRp324
asVweb,web
p325
(lp326
g4
(g6
S'\x8f\xafx>'
tRp327
ag4
(g6
S'\xcf\xfb\xa2A'
tRp328
asVbrass,brass
p329
(lp330
g4
(g6
S'\xf5\xa5\x82>'
tRp331
ag4
(g6
S'\xaaye@'
tRp332
asVrole,role
p333
(lp334
g4
(g6
S'b\x0b6>'
tRp335
ag4
(g6
S'\xbb\xe98A'
tRp336
asVcash,cash
p337
(lp338
g4
(g6
S'\x04[0?'
tRp339
ag4
(g6
S'\x08p\xde?'
tRp340
as.